target datalayout = "e-m:e-p270:32:32-p271:32:32-p272:64:64-i64:64-i128:128-f80:128-n8:16:32:64-S128"
target triple = "x86_64-pc-linux-gnu"

%class.CryptData = type { [4 x %"struct.CryptData::KDF3CacheItem"], i32, [4 x i8], [4 x %"struct.CryptData::KDF5CacheItem"], i32, i32, %class.Rijndael, [256 x i32], [256 x i8], [4 x i32], [3 x i8], [4 x i16], [4 x i8] }
%"struct.CryptData::KDF3CacheItem" = type { %class.SecPassword, [8 x i8], [16 x i8], [16 x i8], i8, [7 x i8] }
%class.SecPassword = type <{ %"class.std::vector", i8, [7 x i8] }>
%"class.std::vector" = type { %"struct.std::_Vector_base" }
%"struct.std::_Vector_base" = type { %"struct.std::_Vector_base<wchar_t, std::allocator<wchar_t>>::_Vector_impl" }
%"struct.std::_Vector_base<wchar_t, std::allocator<wchar_t>>::_Vector_impl" = type { %"struct.std::_Vector_base<wchar_t, std::allocator<wchar_t>>::_Vector_impl_data" }
%"struct.std::_Vector_base<wchar_t, std::allocator<wchar_t>>::_Vector_impl_data" = type { ptr, ptr, ptr }
%"struct.CryptData::KDF5CacheItem" = type { %class.SecPassword, [16 x i8], [32 x i8], i32, [32 x i8], [32 x i8], [4 x i8] }
%class.Rijndael = type { i8, i32, [16 x i8], [15 x [4 x [4 x i8]]] }

; Function Attrs: mustprogress uwtable
define void @_ZN9CryptData8SetKey15EPKc(ptr noundef nonnull align 8 dereferenceable(2516) %0, ptr noundef %1) #1 align 2 {
  %3 = alloca ptr, align 8
  %4 = alloca ptr, align 8
  %5 = alloca i32, align 4
  %6 = alloca i64, align 8
  %7 = alloca i8, align 1
  store ptr %0, ptr %3, align 8
  store ptr %1, ptr %4, align 8
  %8 = load ptr, ptr %3, align 8
  %9 = getelementptr inbounds %class.CryptData, ptr %8, i32 0, i32 7
  %10 = getelementptr inbounds [256 x i32], ptr %9, i64 0, i64 0
  call void @_Z9InitCRC32Pj(ptr noundef %10)
  %11 = load ptr, ptr %4, align 8
  %12 = load ptr, ptr %4, align 8
  %13 = call i64 @strlen(ptr noundef %12) #12
  %14 = call noundef i32 @_Z5CRC32jPKvm(i32 noundef -1, ptr noundef %11, i64 noundef %13)
  store i32 %14, ptr %5, align 4
  %15 = load i32, ptr %5, align 4
  %16 = and i32 %15, 65535
  %17 = trunc i32 %16 to i16
  %18 = getelementptr inbounds %class.CryptData, ptr %8, i32 0, i32 11
  %19 = getelementptr inbounds [4 x i16], ptr %18, i64 0, i64 0
  store i16 %17, ptr %19, align 4
  %20 = load i32, ptr %5, align 4
  %21 = lshr i32 %20, 16
  %22 = and i32 %21, 65535
  %23 = trunc i32 %22 to i16
  %24 = getelementptr inbounds %class.CryptData, ptr %8, i32 0, i32 11
  %25 = getelementptr inbounds [4 x i16], ptr %24, i64 0, i64 1
  store i16 %23, ptr %25, align 2
  %26 = getelementptr inbounds %class.CryptData, ptr %8, i32 0, i32 11
  %27 = getelementptr inbounds [4 x i16], ptr %26, i64 0, i64 3
  store i16 0, ptr %27, align 2
  %28 = getelementptr inbounds %class.CryptData, ptr %8, i32 0, i32 11
  %29 = getelementptr inbounds [4 x i16], ptr %28, i64 0, i64 2
  store i16 0, ptr %29, align 4
  store i64 0, ptr %6, align 8
  br label %30

30:                                               ; preds = %71, %2
  %31 = load ptr, ptr %4, align 8
  %32 = load i64, ptr %6, align 8
  %33 = getelementptr inbounds i8, ptr %31, i64 %32
  %34 = load i8, ptr %33, align 1
  %35 = sext i8 %34 to i32
  %36 = icmp ne i32 %35, 0
  br i1 %36, label %37, label %74

37:                                               ; preds = %30
  %38 = load ptr, ptr %4, align 8
  %39 = load i64, ptr %6, align 8
  %40 = getelementptr inbounds i8, ptr %38, i64 %39
  %41 = load i8, ptr %40, align 1
  store i8 %41, ptr %7, align 1
  %42 = load i8, ptr %7, align 1
  %43 = zext i8 %42 to i32
  %44 = getelementptr inbounds %class.CryptData, ptr %8, i32 0, i32 7
  %45 = load i8, ptr %7, align 1
  %46 = zext i8 %45 to i64
  %47 = getelementptr inbounds [256 x i32], ptr %44, i64 0, i64 %46
  %48 = load i32, ptr %47, align 4
  %49 = xor i32 %43, %48
  %50 = getelementptr inbounds %class.CryptData, ptr %8, i32 0, i32 11
  %51 = getelementptr inbounds [4 x i16], ptr %50, i64 0, i64 2
  %52 = load i16, ptr %51, align 4
  %53 = zext i16 %52 to i32
  %54 = xor i32 %53, %49
  %55 = trunc i32 %54 to i16
  store i16 %55, ptr %51, align 4
  %56 = load i8, ptr %7, align 1
  %57 = zext i8 %56 to i32
  %58 = getelementptr inbounds %class.CryptData, ptr %8, i32 0, i32 7
  %59 = load i8, ptr %7, align 1
  %60 = zext i8 %59 to i64
  %61 = getelementptr inbounds [256 x i32], ptr %58, i64 0, i64 %60
  %62 = load i32, ptr %61, align 4
  %63 = lshr i32 %62, 16
  %64 = add i32 %57, %63
  %65 = getelementptr inbounds %class.CryptData, ptr %8, i32 0, i32 11
  %66 = getelementptr inbounds [4 x i16], ptr %65, i64 0, i64 3
  %67 = load i16, ptr %66, align 2
  %68 = zext i16 %67 to i32
  %69 = add i32 %68, %64
  %70 = trunc i32 %69 to i16
  store i16 %70, ptr %66, align 2
  br label %71

71:                                               ; preds = %37
  %72 = load i64, ptr %6, align 8
  %73 = add i64 %72, 1
  store i64 %73, ptr %6, align 8
  br label %30, !llvm.loop !6

74:                                               ; preds = %30
  ret void
}