; Function Attrs: mustprogress uwtable
define void @_ZN9CryptData8SetKey15EPKc(ptr noundef nonnull align 8 dereferenceable(2516) %0, ptr noundef %1) local_unnamed_addr #1 align 2 {
  %3 = getelementptr inbounds nuw i8, ptr %0, i64 1208
  tail call void @_Z9InitCRC32Pj(ptr noundef nonnull %3)
  %4 = tail call i64 @strlen(ptr noundef nonnull dereferenceable(1) %1) #19
  %5 = tail call noundef i32 @_Z5CRC32jPKvm(i32 noundef -1, ptr noundef nonnull %1, i64 noundef %4)
  %6 = trunc i32 %5 to i16
  %7 = getelementptr inbounds nuw i8, ptr %0, i64 2508
  store i16 %6, ptr %7, align 4
  %8 = lshr i32 %5, 16
  %9 = trunc nuw i32 %8 to i16
  %10 = getelementptr inbounds nuw i8, ptr %0, i64 2510
  store i16 %9, ptr %10, align 2
  %11 = getelementptr inbounds nuw i8, ptr %0, i64 2514
  store i16 0, ptr %11, align 2
  %12 = getelementptr inbounds nuw i8, ptr %0, i64 2512
  store i16 0, ptr %12, align 8
  %13 = load i8, ptr %1, align 1
  %.not14 = icmp eq i8 %13, 0
  br i1 %.not14, label %._crit_edge, label %.lr.ph

.lr.ph:                                           ; preds = %2, %.lr.ph
  %14 = phi i8 [ %30, %.lr.ph ], [ %13, %2 ]
  %.015 = phi i64 [ %28, %.lr.ph ], [ 0, %2 ]
  %15 = phi i32 [ %22, %.lr.ph ], [ 0, %2 ]
  %16 = phi i16 [ %27, %.lr.ph ], [ 0, %2 ]
  %17 = zext i8 %14 to i32
  %18 = zext i8 %14 to i64
  %19 = getelementptr inbounds nuw [256 x i32], ptr %3, i64 0, i64 %18
  %20 = load i32, ptr %19, align 4
  %21 = xor i32 %15, %17
  %22 = xor i32 %21, %20
  %23 = trunc i32 %22 to i16
  store i16 %23, ptr %12, align 8
  %24 = lshr i32 %20, 16
  %25 = add nuw nsw i32 %24, %17
  %26 = trunc i32 %25 to i16
  %27 = add i16 %16, %26
  store i16 %27, ptr %11, align 2
  %28 = add i64 %.015, 1
  %29 = getelementptr inbounds i8, ptr %1, i64 %28
  %30 = load i8, ptr %29, align 1
  %.not = icmp eq i8 %30, 0
  br i1 %.not, label %._crit_edge, label %.lr.ph, !llvm.loop !6

._crit_edge:                                      ; preds = %.lr.ph, %2
  ret void
}